; Function Attrs: nounwind uwtable
define ptr @Gia_ManBuildMuxes(ptr noundef %0, ptr noundef %1) local_unnamed_addr #0 {
  %3 = getelementptr inbounds nuw i8, ptr %0, i64 520
  %4 = load ptr, ptr %3, align 8, !tbaa !12
  %5 = load i32, ptr %0, align 8, !tbaa !15
  %6 = getelementptr inbounds nuw i8, ptr %0, i64 4
  %7 = load i32, ptr %6, align 4, !tbaa !14
  %.not = icmp eq ptr %1, null
  %8 = getelementptr inbounds nuw i8, ptr %0, i64 136
  %9 = select i1 %.not, ptr %8, ptr %1
  %10 = tail call ptr @Gia_ManBuildMuxesTest(ptr noundef %4, i32 noundef %5, i32 noundef %7, ptr noundef nonnull %9)
  ret ptr %10
}